; Function Attrs: nounwind uwtable
define dso_local void @strbuf_vaddf(ptr noundef captures(none) %0, ptr noundef %1, ptr noundef %2) local_unnamed_addr #3 {
  %4 = alloca [1 x %struct.__va_list_tag], align 16
  call void @llvm.lifetime.start.p0(i64 24, ptr nonnull %4) #25
  %5 = load i64, ptr %0, align 8, !tbaa !15
  %.not.i = icmp eq i64 %5, 0
  %6 = getelementptr inbounds nuw i8, ptr %0, i64 8
  %7 = load i64, ptr %6, align 8, !tbaa !16
  br i1 %.not.i, label %strbuf_avail.exit.thread, label %strbuf_avail.exit

strbuf_avail.exit:                                ; preds = %3
  %.neg = add i64 %7, 1
  %.not = icmp eq i64 %5, %.neg
  br i1 %.not, label %.thread, label %strbuf_grow.exit

strbuf_avail.exit.thread:                         ; preds = %3
  %8 = icmp ugt i64 %7, -66
  br i1 %8, label %10, label %11

.thread:                                          ; preds = %strbuf_avail.exit
  %9 = icmp ugt i64 %7, -66
  br i1 %9, label %10, label %.thread36

10:                                               ; preds = %.thread, %strbuf_avail.exit.thread
  tail call void (ptr, ...) @die(ptr noundef nonnull @.str) #24
  unreachable

11:                                               ; preds = %strbuf_avail.exit.thread
  %12 = getelementptr inbounds nuw i8, ptr %0, i64 16
  store ptr null, ptr %12, align 8, !tbaa !12
  br label %.thread36

.thread36:                                        ; preds = %.thread, %11
  %13 = add nuw i64 %7, 65
  %14 = icmp ugt i64 %13, %5
  br i1 %14, label %15, label %strbuf_grow.exit

15:                                               ; preds = %.thread36
  %16 = mul i64 %5, 3
  %17 = add i64 %16, 48
  %18 = lshr i64 %17, 1
  %..i = tail call i64 @llvm.umax.i64(i64 %18, i64 %13)
  store i64 %..i, ptr %0, align 8, !tbaa !15
  %19 = getelementptr inbounds nuw i8, ptr %0, i64 16
  %20 = load ptr, ptr %19, align 8, !tbaa !12
  %21 = tail call ptr @xrealloc(ptr noundef %20, i64 noundef %..i) #25
  store ptr %21, ptr %19, align 8, !tbaa !12
  br i1 %.not.i, label %22, label %strbuf_grow.exit

22:                                               ; preds = %15
  store i8 0, ptr %21, align 1, !tbaa !4
  br label %strbuf_grow.exit

strbuf_grow.exit:                                 ; preds = %.thread36, %22, %15, %strbuf_avail.exit
  call void @llvm.va_copy.p0(ptr nonnull %4, ptr %2)
  %23 = getelementptr inbounds nuw i8, ptr %0, i64 16
  %24 = load ptr, ptr %23, align 8, !tbaa !12
  %25 = getelementptr inbounds nuw i8, ptr %0, i64 8
  %26 = load i64, ptr %25, align 8, !tbaa !16
  %27 = getelementptr inbounds nuw i8, ptr %24, i64 %26
  %28 = load i64, ptr %0, align 8, !tbaa !15
  %29 = sub i64 %28, %26
  %30 = call i32 @vsnprintf(ptr noundef %27, i64 noundef %29, ptr noundef %1, ptr noundef nonnull %4) #25
  call void @llvm.va_end.p0(ptr nonnull %4)
  %31 = icmp slt i32 %30, 0
  br i1 %31, label %32, label %strbuf_avail.exit28

32:                                               ; preds = %strbuf_grow.exit
  %33 = call fastcc ptr @_(ptr noundef nonnull @.str.3)
  call void (ptr, ...) @die(ptr noundef %33, ptr noundef %1) #24
  unreachable

strbuf_avail.exit28:                              ; preds = %strbuf_grow.exit
  %34 = zext nneg i32 %30 to i64
  %35 = load i64, ptr %0, align 8, !tbaa !15
  %.not.i27 = icmp eq i64 %35, 0
  %.pre40.pre = load i64, ptr %25, align 8, !tbaa !16
  %36 = xor i64 %.pre40.pre, -1
  %37 = add i64 %35, %36
  %38 = select i1 %.not.i27, i64 0, i64 %37
  %39 = icmp ult i64 %38, %34
  br i1 %39, label %40, label %strbuf_avail.exit28._crit_edge

strbuf_avail.exit28._crit_edge:                   ; preds = %strbuf_avail.exit28
  %.pre43 = zext nneg i32 %30 to i64
  br label %71

40:                                               ; preds = %strbuf_avail.exit28
  %41 = sub nuw nsw i64 -2, %34
  %42 = icmp ult i64 %41, %.pre40.pre
  br i1 %42, label %43, label %44

43:                                               ; preds = %40
  call void (ptr, ...) @die(ptr noundef nonnull @.str) #24
  unreachable

44:                                               ; preds = %40
  br i1 %.not.i27, label %45, label %._crit_edge

._crit_edge:                                      ; preds = %44
  %.pre38.pre.pre = load ptr, ptr %23, align 8, !tbaa !12
  br label %46

45:                                               ; preds = %44
  store ptr null, ptr %23, align 8, !tbaa !12
  br label %46

46:                                               ; preds = %._crit_edge, %45
  %.pre38.pre = phi ptr [ %.pre38.pre.pre, %._crit_edge ], [ null, %45 ]
  %47 = add nuw nsw i64 %34, 1
  %48 = add i64 %47, %.pre40.pre
  %49 = icmp ugt i64 %48, %35
  br i1 %49, label %st_mult.exit.i30, label %54

st_mult.exit.i30:                                 ; preds = %46
  %50 = mul i64 %35, 3
  %51 = add i64 %50, 48
  %52 = lshr i64 %51, 1
  %..i31 = call i64 @llvm.umax.i64(i64 %52, i64 %48)
  store i64 %..i31, ptr %0, align 8, !tbaa !15
  %53 = call ptr @xrealloc(ptr noundef %.pre38.pre, i64 noundef %..i31) #25
  store ptr %53, ptr %23, align 8, !tbaa !12
  br label %54

54:                                               ; preds = %st_mult.exit.i30, %46
  %.pre38 = phi ptr [ %53, %st_mult.exit.i30 ], [ %.pre38.pre, %46 ]
  br i1 %.not.i27, label %55, label %strbuf_grow.exit32

55:                                               ; preds = %54
  store i8 0, ptr %.pre38, align 1, !tbaa !4
  %.pre = load ptr, ptr %23, align 8, !tbaa !12
  br label %strbuf_grow.exit32

strbuf_grow.exit32:                               ; preds = %54, %55
  %56 = phi ptr [ %.pre38, %54 ], [ %.pre, %55 ]
  %57 = load i64, ptr %25, align 8, !tbaa !16
  %58 = getelementptr inbounds nuw i8, ptr %56, i64 %57
  %59 = load i64, ptr %0, align 8, !tbaa !15
  %60 = sub i64 %59, %57
  %61 = call i32 @vsnprintf(ptr noundef %58, i64 noundef %60, ptr noundef %1, ptr noundef %2) #25
  %62 = sext i32 %61 to i64
  %63 = load i64, ptr %0, align 8, !tbaa !15
  %.not.i33 = icmp eq i64 %63, 0
  br i1 %.not.i33, label %strbuf_avail.exit34, label %64

64:                                               ; preds = %strbuf_grow.exit32
  %65 = load i64, ptr %25, align 8, !tbaa !16
  %66 = xor i64 %65, -1
  %67 = add i64 %63, %66
  br label %strbuf_avail.exit34

strbuf_avail.exit34:                              ; preds = %strbuf_grow.exit32, %64
  %68 = phi i64 [ %67, %64 ], [ 0, %strbuf_grow.exit32 ]
  %69 = icmp ult i64 %68, %62
  br i1 %69, label %70, label %strbuf_avail.exit34._crit_edge

strbuf_avail.exit34._crit_edge:                   ; preds = %strbuf_avail.exit34
  %.pre39 = load i64, ptr %25, align 8, !tbaa !16
  br label %71

70:                                               ; preds = %strbuf_avail.exit34
  call void (ptr, i32, ptr, ...) @BUG_fl(ptr noundef nonnull @.str.4, i32 noundef 423, ptr noundef nonnull @.str.7) #24
  unreachable

71:                                               ; preds = %strbuf_avail.exit28._crit_edge, %strbuf_avail.exit34._crit_edge
  %.pre-phi = phi i64 [ %.pre43, %strbuf_avail.exit28._crit_edge ], [ %62, %strbuf_avail.exit34._crit_edge ]
  %72 = phi i64 [ %35, %strbuf_avail.exit28._crit_edge ], [ %63, %strbuf_avail.exit34._crit_edge ]
  %73 = phi i64 [ %.pre40.pre, %strbuf_avail.exit28._crit_edge ], [ %.pre39, %strbuf_avail.exit34._crit_edge ]
  %74 = add i64 %73, %.pre-phi
  %spec.select.i = call i64 @llvm.usub.sat.i64(i64 %72, i64 1)
  %75 = icmp ugt i64 %74, %spec.select.i
  br i1 %75, label %76, label %77

76:                                               ; preds = %71
  call void (ptr, i32, ptr, ...) @BUG_fl(ptr noundef nonnull @.str.28, i32 noundef 167, ptr noundef nonnull @.str.29) #24
  unreachable

77:                                               ; preds = %71
  store i64 %74, ptr %25, align 8, !tbaa !16
  %78 = load ptr, ptr %23, align 8, !tbaa !12
  %.not9.i = icmp eq ptr %78, @strbuf_slopbuf
  br i1 %.not9.i, label %strbuf_setlen.exit, label %79

79:                                               ; preds = %77
  %80 = getelementptr inbounds nuw i8, ptr %78, i64 %74
  store i8 0, ptr %80, align 1, !tbaa !4
  br label %strbuf_setlen.exit

strbuf_setlen.exit:                               ; preds = %77, %79
  call void @llvm.lifetime.end.p0(i64 24, ptr nonnull %4) #25
  ret void
}